; Function Attrs: mustprogress uwtable
define dso_local void @_ZN11NetQuantizeC2Ev(ptr noundef nonnull align 8 dereferenceable(216) %0) unnamed_addr #3 align 2 personality ptr @__gxx_personality_v0 {
  tail call void @_ZN11ModelWriterC2Ev(ptr noundef nonnull align 8 dereferenceable(116) %0)
  store ptr getelementptr inbounds nuw inrange(-16, 56) (i8, ptr @_ZTV11NetQuantize, i64 16), ptr %0, align 8, !tbaa !20
  %2 = getelementptr inbounds nuw i8, ptr %0, i64 128
  store i32 0, ptr %2, align 8, !tbaa !107
  %3 = getelementptr inbounds nuw i8, ptr %0, i64 136
  store ptr null, ptr %3, align 8, !tbaa !112
  %4 = getelementptr inbounds nuw i8, ptr %0, i64 144
  store ptr %2, ptr %4, align 8, !tbaa !113
  %5 = getelementptr inbounds nuw i8, ptr %0, i64 152
  store ptr %2, ptr %5, align 8, !tbaa !114
  %6 = getelementptr inbounds nuw i8, ptr %0, i64 160
  store i64 0, ptr %6, align 8, !tbaa !115
  %7 = getelementptr inbounds nuw i8, ptr %0, i64 176
  store i32 0, ptr %7, align 8, !tbaa !107
  %8 = getelementptr inbounds nuw i8, ptr %0, i64 184
  store ptr null, ptr %8, align 8, !tbaa !112
  %9 = getelementptr inbounds nuw i8, ptr %0, i64 192
  store ptr %7, ptr %9, align 8, !tbaa !113
  %10 = getelementptr inbounds nuw i8, ptr %0, i64 200
  store ptr %7, ptr %10, align 8, !tbaa !114
  %11 = getelementptr inbounds nuw i8, ptr %0, i64 208
  store i64 0, ptr %11, align 8, !tbaa !115
  ret void
}